target datalayout = "e-m:e-p270:32:32-p271:32:32-p272:64:64-i64:64-i128:128-f80:128-n8:16:32:64-S128"
target triple = "x86_64-pc-linux-gnu"

%struct.rb_data_type_struct = type { ptr, %struct.anon, ptr, ptr, i64 }
%struct.anon = type { ptr, ptr, ptr, ptr, [1 x ptr] }
%struct.rb_io_buffer = type { ptr, i64, i32, i64 }
%struct.RBasic = type { i64, i64 }

@rb_io_buffer_type = internal constant %struct.rb_data_type_struct { ptr @.str.108, %struct.anon { ptr @rb_io_buffer_type_mark, ptr @rb_io_buffer_type_free, ptr @rb_io_buffer_type_size, ptr null, [1 x ptr] zeroinitializer }, ptr null, ptr null, i64 35 }, align 8
@rb_eIOBufferAccessError = hidden global i64 0, align 8
@rb_eIOBufferInvalidatedError = hidden global i64 0, align 8
@.str.117 = private unnamed_addr constant [24 x i8] c"Buffer is not writable!\00", align 1
@.str.118 = private unnamed_addr constant [19 x i8] c"Buffer is invalid!\00", align 1

; Function Attrs: inlinehint nounwind sspstrong willreturn memory(none) uwtable
define internal zeroext i1 @RB_FLONUM_P(i64 noundef %0) #11 {
  %2 = alloca i64, align 8
  store i64 %0, ptr %2, align 8, !tbaa !20
  %3 = load i64, ptr %2, align 8, !tbaa !20
  %4 = and i64 %3, 3
  %5 = icmp eq i64 %4, 2
  ret i1 %5
}

; Function Attrs: inlinehint nounwind sspstrong willreturn memory(read) uwtable
define internal zeroext i1 @RB_DYNAMIC_SYM_P(i64 noundef %0) #5 {
  %2 = alloca i1, align 1
  %3 = alloca i64, align 8
  store i64 %0, ptr %3, align 8, !tbaa !20
  %4 = load i64, ptr %3, align 8, !tbaa !20
  %5 = call zeroext i1 @RB_SPECIAL_CONST_P(i64 noundef %4) #24
  br i1 %5, label %6, label %7

6:                                                ; preds = %1
  store i1 false, ptr %2, align 1
  br label %11

7:                                                ; preds = %1
  %8 = load i64, ptr %3, align 8, !tbaa !20
  %9 = call i32 @RB_BUILTIN_TYPE(i64 noundef %8) #23
  %10 = icmp eq i32 %9, 20
  store i1 %10, ptr %2, align 1
  br label %11

11:                                               ; preds = %7, %6
  %12 = load i1, ptr %2, align 1
  ret i1 %12
}

; Function Attrs: inlinehint nounwind sspstrong willreturn memory(none) uwtable
define internal zeroext i1 @RB_STATIC_SYM_P(i64 noundef %0) #11 {
  %2 = alloca i64, align 8
  %3 = alloca i64, align 8
  store i64 %0, ptr %2, align 8, !tbaa !20
  call void @llvm.lifetime.start.p0(i64 8, ptr %3) #22
  store i64 255, ptr %3, align 8, !tbaa !20
  %4 = load i64, ptr %2, align 8, !tbaa !20
  %5 = and i64 %4, 255
  %6 = icmp eq i64 %5, 12
  call void @llvm.lifetime.end.p0(i64 8, ptr %3) #22
  ret i1 %6
}

; Function Attrs: inlinehint nounwind sspstrong willreturn memory(read) uwtable
define internal i32 @rb_type(i64 noundef %0) #5 {
  %2 = alloca i32, align 4
  %3 = alloca i64, align 8
  store i64 %0, ptr %3, align 8, !tbaa !20
  %4 = load i64, ptr %3, align 8, !tbaa !20
  %5 = call zeroext i1 @RB_SPECIAL_CONST_P(i64 noundef %4) #24
  br i1 %5, label %9, label %6

6:                                                ; preds = %1
  %7 = load i64, ptr %3, align 8, !tbaa !20
  %8 = call i32 @RB_BUILTIN_TYPE(i64 noundef %7) #23
  store i32 %8, ptr %2, align 4
  br label %36

9:                                                ; preds = %1
  %10 = load i64, ptr %3, align 8, !tbaa !20
  %11 = icmp eq i64 %10, 0
  br i1 %11, label %12, label %13

12:                                               ; preds = %9
  store i32 19, ptr %2, align 4
  br label %36

13:                                               ; preds = %9
  %14 = load i64, ptr %3, align 8, !tbaa !20
  %15 = icmp eq i64 %14, 4
  br i1 %15, label %16, label %17

16:                                               ; preds = %13
  store i32 17, ptr %2, align 4
  br label %36

17:                                               ; preds = %13
  %18 = load i64, ptr %3, align 8, !tbaa !20
  %19 = icmp eq i64 %18, 20
  br i1 %19, label %20, label %21

20:                                               ; preds = %17
  store i32 18, ptr %2, align 4
  br label %36

21:                                               ; preds = %17
  %22 = load i64, ptr %3, align 8, !tbaa !20
  %23 = icmp eq i64 %22, 36
  br i1 %23, label %24, label %25

24:                                               ; preds = %21
  store i32 22, ptr %2, align 4
  br label %36

25:                                               ; preds = %21
  %26 = load i64, ptr %3, align 8, !tbaa !20
  %27 = call zeroext i1 @RB_FIXNUM_P(i64 noundef %26) #24
  br i1 %27, label %28, label %29

28:                                               ; preds = %25
  store i32 21, ptr %2, align 4
  br label %36

29:                                               ; preds = %25
  %30 = load i64, ptr %3, align 8, !tbaa !20
  %31 = call zeroext i1 @RB_STATIC_SYM_P(i64 noundef %30) #24
  br i1 %31, label %32, label %33

32:                                               ; preds = %29
  store i32 20, ptr %2, align 4
  br label %36

33:                                               ; preds = %29
  %34 = load i64, ptr %3, align 8, !tbaa !20
  %35 = call zeroext i1 @RB_FLONUM_P(i64 noundef %34) #24
  call void @llvm.assume(i1 %35)
  store i32 4, ptr %2, align 4
  br label %36

36:                                               ; preds = %33, %32, %28, %24, %20, %16, %12, %6
  %37 = load i32, ptr %2, align 4
  ret i32 %37
}

; Function Attrs: inlinehint nounwind sspstrong willreturn memory(read) uwtable
define internal i32 @RB_BUILTIN_TYPE(i64 noundef %0) #5 {
  %2 = alloca i64, align 8
  %3 = alloca i64, align 8
  store i64 %0, ptr %2, align 8, !tbaa !20
  call void @llvm.lifetime.start.p0(i64 8, ptr %3) #22
  %4 = load i64, ptr %2, align 8, !tbaa !20
  %5 = inttoptr i64 %4 to ptr
  %6 = getelementptr inbounds nuw %struct.RBasic, ptr %5, i32 0, i32 0
  %7 = load i64, ptr %6, align 8, !tbaa !98
  %8 = and i64 %7, 31
  store i64 %8, ptr %3, align 8, !tbaa !20
  %9 = load i64, ptr %3, align 8, !tbaa !20
  %10 = trunc i64 %9 to i32
  call void @llvm.lifetime.end.p0(i64 8, ptr %3) #22
  ret i32 %10
}

; Function Attrs: inlinehint nounwind sspstrong willreturn memory(read) uwtable
define internal zeroext i1 @RB_FLOAT_TYPE_P(i64 noundef %0) #5 {
  %2 = alloca i1, align 1
  %3 = alloca i64, align 8
  store i64 %0, ptr %3, align 8, !tbaa !20
  %4 = load i64, ptr %3, align 8, !tbaa !20
  %5 = call zeroext i1 @RB_FLONUM_P(i64 noundef %4) #24
  br i1 %5, label %6, label %7

6:                                                ; preds = %1
  store i1 true, ptr %2, align 1
  br label %15

7:                                                ; preds = %1
  %8 = load i64, ptr %3, align 8, !tbaa !20
  %9 = call zeroext i1 @RB_SPECIAL_CONST_P(i64 noundef %8) #24
  br i1 %9, label %10, label %11

10:                                               ; preds = %7
  store i1 false, ptr %2, align 1
  br label %15

11:                                               ; preds = %7
  %12 = load i64, ptr %3, align 8, !tbaa !20
  %13 = call i32 @RB_BUILTIN_TYPE(i64 noundef %12) #23
  %14 = icmp eq i32 %13, 4
  store i1 %14, ptr %2, align 1
  br label %15

15:                                               ; preds = %11, %10, %6
  %16 = load i1, ptr %2, align 1
  ret i1 %16
}

; Function Attrs: inlinehint nounwind sspstrong willreturn memory(read) uwtable
define internal zeroext i1 @RB_SYMBOL_P(i64 noundef %0) #5 {
  %2 = alloca i64, align 8
  store i64 %0, ptr %2, align 8, !tbaa !20
  %3 = load i64, ptr %2, align 8, !tbaa !20
  %4 = call zeroext i1 @RB_STATIC_SYM_P(i64 noundef %3) #24
  br i1 %4, label %8, label %5

5:                                                ; preds = %1
  %6 = load i64, ptr %2, align 8, !tbaa !20
  %7 = call zeroext i1 @RB_DYNAMIC_SYM_P(i64 noundef %6) #23
  br label %8

8:                                                ; preds = %5, %1
  %9 = phi i1 [ true, %1 ], [ %7, %5 ]
  ret i1 %9
}

; Function Attrs: inlinehint nounwind sspstrong willreturn memory(none) uwtable
define internal zeroext i1 @RB_FIXNUM_P(i64 noundef %0) #11 {
  %2 = alloca i64, align 8
  store i64 %0, ptr %2, align 8, !tbaa !20
  %3 = load i64, ptr %2, align 8, !tbaa !20
  %4 = and i64 %3, 1
  %5 = icmp ne i64 %4, 0
  ret i1 %5
}

; Function Attrs: inlinehint nounwind sspstrong willreturn memory(none) uwtable
define internal zeroext i1 @RB_IMMEDIATE_P(i64 noundef %0) #11 {
  %2 = alloca i64, align 8
  store i64 %0, ptr %2, align 8, !tbaa !20
  %3 = load i64, ptr %2, align 8, !tbaa !20
  %4 = and i64 %3, 7
  %5 = icmp ne i64 %4, 0
  ret i1 %5
}

; Function Attrs: inlinehint nounwind sspstrong willreturn memory(read) uwtable
define internal i64 @RB_FL_TEST_RAW(i64 noundef %0, i64 noundef %1) #5 {
  %3 = alloca i64, align 8
  %4 = alloca i64, align 8
  store i64 %0, ptr %3, align 8, !tbaa !20
  store i64 %1, ptr %4, align 8, !tbaa !20
  %5 = load i64, ptr %3, align 8, !tbaa !20
  %6 = inttoptr i64 %5 to ptr
  %7 = getelementptr inbounds nuw %struct.RBasic, ptr %6, i32 0, i32 0
  %8 = load i64, ptr %7, align 8, !tbaa !98
  %9 = load i64, ptr %4, align 8, !tbaa !20
  %10 = and i64 %8, %9
  ret i64 %10
}

; Function Attrs: inlinehint nounwind sspstrong willreturn memory(read) uwtable
define internal zeroext i1 @RB_TYPE_P(i64 noundef %0, i32 noundef %1) #5 {
  %3 = alloca i1, align 1
  %4 = alloca i64, align 8
  %5 = alloca i32, align 4
  store i64 %0, ptr %4, align 8, !tbaa !20
  store i32 %1, ptr %5, align 4, !tbaa !32
  %6 = load i32, ptr %5, align 4, !tbaa !32
  %7 = call i1 @llvm.is.constant.i32(i32 %6)
  br i1 %7, label %8, label %12

8:                                                ; preds = %2
  %9 = load i64, ptr %4, align 8, !tbaa !20
  %10 = load i32, ptr %5, align 4, !tbaa !32
  %11 = call zeroext i1 @rbimpl_RB_TYPE_P_fastpath(i64 noundef %9, i32 noundef %10) #23
  store i1 %11, ptr %3, align 1
  br label %17

12:                                               ; preds = %2
  %13 = load i32, ptr %5, align 4, !tbaa !32
  %14 = load i64, ptr %4, align 8, !tbaa !20
  %15 = call i32 @rb_type(i64 noundef %14) #23
  %16 = icmp eq i32 %13, %15
  store i1 %16, ptr %3, align 1
  br label %17

17:                                               ; preds = %12, %8
  %18 = load i1, ptr %3, align 1
  ret i1 %18
}

; Function Attrs: alwaysinline nounwind sspstrong willreturn memory(read) uwtable
define internal zeroext i1 @rbimpl_RB_TYPE_P_fastpath(i64 noundef %0, i32 noundef %1) #12 {
  %3 = alloca i1, align 1
  %4 = alloca i64, align 8
  %5 = alloca i32, align 4
  store i64 %0, ptr %4, align 8, !tbaa !20
  store i32 %1, ptr %5, align 4, !tbaa !32
  %6 = load i32, ptr %5, align 4, !tbaa !32
  %7 = icmp eq i32 %6, 18
  br i1 %7, label %8, label %11

8:                                                ; preds = %2
  %9 = load i64, ptr %4, align 8, !tbaa !20
  %10 = icmp eq i64 %9, 20
  store i1 %10, ptr %3, align 1
  br label %58

11:                                               ; preds = %2
  %12 = load i32, ptr %5, align 4, !tbaa !32
  %13 = icmp eq i32 %12, 19
  br i1 %13, label %14, label %17

14:                                               ; preds = %11
  %15 = load i64, ptr %4, align 8, !tbaa !20
  %16 = icmp eq i64 %15, 0
  store i1 %16, ptr %3, align 1
  br label %58

17:                                               ; preds = %11
  %18 = load i32, ptr %5, align 4, !tbaa !32
  %19 = icmp eq i32 %18, 17
  br i1 %19, label %20, label %23

20:                                               ; preds = %17
  %21 = load i64, ptr %4, align 8, !tbaa !20
  %22 = icmp eq i64 %21, 4
  store i1 %22, ptr %3, align 1
  br label %58

23:                                               ; preds = %17
  %24 = load i32, ptr %5, align 4, !tbaa !32
  %25 = icmp eq i32 %24, 22
  br i1 %25, label %26, label %29

26:                                               ; preds = %23
  %27 = load i64, ptr %4, align 8, !tbaa !20
  %28 = icmp eq i64 %27, 36
  store i1 %28, ptr %3, align 1
  br label %58

29:                                               ; preds = %23
  %30 = load i32, ptr %5, align 4, !tbaa !32
  %31 = icmp eq i32 %30, 21
  br i1 %31, label %32, label %35

32:                                               ; preds = %29
  %33 = load i64, ptr %4, align 8, !tbaa !20
  %34 = call zeroext i1 @RB_FIXNUM_P(i64 noundef %33) #24
  store i1 %34, ptr %3, align 1
  br label %58

35:                                               ; preds = %29
  %36 = load i32, ptr %5, align 4, !tbaa !32
  %37 = icmp eq i32 %36, 20
  br i1 %37, label %38, label %41

38:                                               ; preds = %35
  %39 = load i64, ptr %4, align 8, !tbaa !20
  %40 = call zeroext i1 @RB_SYMBOL_P(i64 noundef %39) #23
  store i1 %40, ptr %3, align 1
  br label %58

41:                                               ; preds = %35
  %42 = load i32, ptr %5, align 4, !tbaa !32
  %43 = icmp eq i32 %42, 4
  br i1 %43, label %44, label %47

44:                                               ; preds = %41
  %45 = load i64, ptr %4, align 8, !tbaa !20
  %46 = call zeroext i1 @RB_FLOAT_TYPE_P(i64 noundef %45) #23
  store i1 %46, ptr %3, align 1
  br label %58

47:                                               ; preds = %41
  %48 = load i64, ptr %4, align 8, !tbaa !20
  %49 = call zeroext i1 @RB_SPECIAL_CONST_P(i64 noundef %48) #24
  br i1 %49, label %50, label %51

50:                                               ; preds = %47
  store i1 false, ptr %3, align 1
  br label %58

51:                                               ; preds = %47
  %52 = load i32, ptr %5, align 4, !tbaa !32
  %53 = load i64, ptr %4, align 8, !tbaa !20
  %54 = call i32 @RB_BUILTIN_TYPE(i64 noundef %53) #23
  %55 = icmp eq i32 %52, %54
  br i1 %55, label %56, label %57

56:                                               ; preds = %51
  store i1 true, ptr %3, align 1
  br label %58

57:                                               ; preds = %51
  store i1 false, ptr %3, align 1
  br label %58

58:                                               ; preds = %57, %56, %50, %44, %38, %32, %26, %20, %14, %8
  %59 = load i1, ptr %3, align 1
  ret i1 %59
}

; Function Attrs: inlinehint nounwind sspstrong willreturn memory(none) uwtable
define internal zeroext i1 @RB_SPECIAL_CONST_P(i64 noundef %0) #11 {
  %2 = alloca i64, align 8
  store i64 %0, ptr %2, align 8, !tbaa !20
  %3 = load i64, ptr %2, align 8, !tbaa !20
  %4 = icmp eq i64 %3, 0
  br i1 %4, label %8, label %5

5:                                                ; preds = %1
  %6 = load i64, ptr %2, align 8, !tbaa !20
  %7 = call zeroext i1 @RB_IMMEDIATE_P(i64 noundef %6) #24
  br label %8

8:                                                ; preds = %5, %1
  %9 = phi i1 [ true, %1 ], [ %7, %5 ]
  ret i1 %9
}

; Function Attrs: inlinehint nounwind sspstrong willreturn memory(read) uwtable
define internal i64 @RB_OBJ_FROZEN_RAW(i64 noundef %0) #5 {
  %2 = alloca i64, align 8
  store i64 %0, ptr %2, align 8, !tbaa !20
  %3 = load i64, ptr %2, align 8, !tbaa !20
  %4 = call i64 @RB_FL_TEST_RAW(i64 noundef %3, i64 noundef 2048) #23
  ret i64 %4
}

; Function Attrs: alwaysinline nounwind sspstrong willreturn memory(read) uwtable
define internal zeroext i1 @RB_FL_ABLE(i64 noundef %0) #12 {
  %2 = alloca i1, align 1
  %3 = alloca i64, align 8
  store i64 %0, ptr %3, align 8, !tbaa !20
  %4 = load i64, ptr %3, align 8, !tbaa !20
  %5 = call zeroext i1 @RB_SPECIAL_CONST_P(i64 noundef %4) #24
  br i1 %5, label %6, label %7

6:                                                ; preds = %1
  store i1 false, ptr %2, align 1
  br label %16

7:                                                ; preds = %1
  br i1 true, label %8, label %11

8:                                                ; preds = %7
  %9 = load i64, ptr %3, align 8, !tbaa !20
  %10 = call zeroext i1 @rbimpl_RB_TYPE_P_fastpath(i64 noundef %9, i32 noundef 27) #23
  br i1 %10, label %14, label %15

11:                                               ; preds = %7
  %12 = load i64, ptr %3, align 8, !tbaa !20
  %13 = call zeroext i1 @RB_TYPE_P(i64 noundef %12, i32 noundef 27) #23
  br i1 %13, label %14, label %15

14:                                               ; preds = %11, %8
  store i1 false, ptr %2, align 1
  br label %16

15:                                               ; preds = %11, %8
  store i1 true, ptr %2, align 1
  br label %16

16:                                               ; preds = %15, %14, %6
  %17 = load i1, ptr %2, align 1
  ret i1 %17
}

; Function Attrs: nounwind sspstrong uwtable
define internal i32 @io_buffer_validate(ptr noundef %0) #0 {
  %2 = alloca i32, align 4
  %3 = alloca ptr, align 8
  store ptr %0, ptr %3, align 8, !tbaa !11
  %4 = load ptr, ptr %3, align 8, !tbaa !11
  %5 = getelementptr inbounds nuw %struct.rb_io_buffer, ptr %4, i32 0, i32 3
  %6 = load i64, ptr %5, align 8, !tbaa !13
  %7 = icmp ne i64 %6, 4
  br i1 %7, label %8, label %19

8:                                                ; preds = %1
  %9 = load ptr, ptr %3, align 8, !tbaa !11
  %10 = getelementptr inbounds nuw %struct.rb_io_buffer, ptr %9, i32 0, i32 3
  %11 = load i64, ptr %10, align 8, !tbaa !13
  %12 = load ptr, ptr %3, align 8, !tbaa !11
  %13 = getelementptr inbounds nuw %struct.rb_io_buffer, ptr %12, i32 0, i32 0
  %14 = load ptr, ptr %13, align 8, !tbaa !17
  %15 = load ptr, ptr %3, align 8, !tbaa !11
  %16 = getelementptr inbounds nuw %struct.rb_io_buffer, ptr %15, i32 0, i32 1
  %17 = load i64, ptr %16, align 8, !tbaa !19
  %18 = call i32 @io_buffer_validate_slice(i64 noundef %11, ptr noundef %14, i64 noundef %17)
  store i32 %18, ptr %2, align 4
  br label %20

19:                                               ; preds = %1
  store i32 1, ptr %2, align 4
  br label %20

20:                                               ; preds = %19, %8
  %21 = load i32, ptr %2, align 4
  ret i32 %21
}

; Function Attrs: inlinehint nounwind sspstrong willreturn memory(read) uwtable
define internal zeroext i1 @RB_OBJ_FROZEN(i64 noundef %0) #5 {
  %2 = alloca i1, align 1
  %3 = alloca i64, align 8
  store i64 %0, ptr %3, align 8, !tbaa !20
  %4 = load i64, ptr %3, align 8, !tbaa !20
  %5 = call zeroext i1 @RB_FL_ABLE(i64 noundef %4) #23
  br i1 %5, label %7, label %6

6:                                                ; preds = %1
  store i1 true, ptr %2, align 1
  br label %11

7:                                                ; preds = %1
  %8 = load i64, ptr %3, align 8, !tbaa !20
  %9 = call i64 @RB_OBJ_FROZEN_RAW(i64 noundef %8) #23
  %10 = icmp ne i64 %9, 0
  store i1 %10, ptr %2, align 1
  br label %11

11:                                               ; preds = %7, %6
  %12 = load i1, ptr %2, align 1
  ret i1 %12
}

; Function Attrs: inlinehint nounwind sspstrong willreturn memory(none) uwtable
define internal zeroext i1 @RB_NIL_P(i64 noundef %0) #11 {
  %2 = alloca i64, align 8
  store i64 %0, ptr %2, align 8, !tbaa !20
  %3 = load i64, ptr %2, align 8, !tbaa !20
  %4 = icmp eq i64 %3, 4
  ret i1 %4
}

; Function Attrs: inlinehint nounwind sspstrong uwtable
define internal void @io_buffer_get_bytes_for_writing(ptr noundef %0, ptr noundef %1, ptr noundef %2) #3 {
  %4 = alloca ptr, align 8
  %5 = alloca ptr, align 8
  %6 = alloca ptr, align 8
  store ptr %0, ptr %4, align 8, !tbaa !11
  store ptr %1, ptr %5, align 8, !tbaa !7
  store ptr %2, ptr %6, align 8, !tbaa !33
  %7 = load ptr, ptr %4, align 8, !tbaa !11
  %8 = getelementptr inbounds nuw %struct.rb_io_buffer, ptr %7, i32 0, i32 2
  %9 = load i32, ptr %8, align 8, !tbaa !18
  %10 = and i32 %9, 128
  %11 = icmp ne i32 %10, 0
  br i1 %11, label %22, label %12

12:                                               ; preds = %3
  %13 = load ptr, ptr %4, align 8, !tbaa !11
  %14 = getelementptr inbounds nuw %struct.rb_io_buffer, ptr %13, i32 0, i32 3
  %15 = load i64, ptr %14, align 8, !tbaa !13
  %16 = call zeroext i1 @RB_NIL_P(i64 noundef %15) #24
  br i1 %16, label %24, label %17

17:                                               ; preds = %12
  %18 = load ptr, ptr %4, align 8, !tbaa !11
  %19 = getelementptr inbounds nuw %struct.rb_io_buffer, ptr %18, i32 0, i32 3
  %20 = load i64, ptr %19, align 8, !tbaa !13
  %21 = call zeroext i1 @RB_OBJ_FROZEN(i64 noundef %20) #23
  br i1 %21, label %22, label %24

22:                                               ; preds = %17, %3
  %23 = load i64, ptr @rb_eIOBufferAccessError, align 8, !tbaa !20
  call void (i64, ptr, ...) @rb_raise(i64 noundef %23, ptr noundef @.str.117) #26
  unreachable

24:                                               ; preds = %17, %12
  %25 = load ptr, ptr %4, align 8, !tbaa !11
  %26 = call i32 @io_buffer_validate(ptr noundef %25)
  %27 = icmp ne i32 %26, 0
  br i1 %27, label %30, label %28

28:                                               ; preds = %24
  %29 = load i64, ptr @rb_eIOBufferInvalidatedError, align 8, !tbaa !20
  call void (i64, ptr, ...) @rb_raise(i64 noundef %29, ptr noundef @.str.118) #26
  unreachable

30:                                               ; preds = %24
  %31 = load ptr, ptr %4, align 8, !tbaa !11
  %32 = getelementptr inbounds nuw %struct.rb_io_buffer, ptr %31, i32 0, i32 0
  %33 = load ptr, ptr %32, align 8, !tbaa !17
  %34 = icmp ne ptr %33, null
  br i1 %34, label %35, label %44

35:                                               ; preds = %30
  %36 = load ptr, ptr %4, align 8, !tbaa !11
  %37 = getelementptr inbounds nuw %struct.rb_io_buffer, ptr %36, i32 0, i32 0
  %38 = load ptr, ptr %37, align 8, !tbaa !17
  %39 = load ptr, ptr %5, align 8, !tbaa !7
  store ptr %38, ptr %39, align 8, !tbaa !7
  %40 = load ptr, ptr %4, align 8, !tbaa !11
  %41 = getelementptr inbounds nuw %struct.rb_io_buffer, ptr %40, i32 0, i32 1
  %42 = load i64, ptr %41, align 8, !tbaa !19
  %43 = load ptr, ptr %6, align 8, !tbaa !33
  store i64 %42, ptr %43, align 8, !tbaa !20
  br label %47

44:                                               ; preds = %30
  %45 = load ptr, ptr %5, align 8, !tbaa !7
  store ptr null, ptr %45, align 8, !tbaa !7
  %46 = load ptr, ptr %6, align 8, !tbaa !33
  store i64 0, ptr %46, align 8, !tbaa !20
  br label %47

47:                                               ; preds = %44, %35
  ret void
}

; Function Attrs: nounwind sspstrong uwtable
define dso_local void @rb_io_buffer_get_bytes_for_writing(i64 noundef %0, ptr noundef %1, ptr noundef %2) #0 {
  %4 = alloca i64, align 8
  %5 = alloca ptr, align 8
  %6 = alloca ptr, align 8
  %7 = alloca ptr, align 8
  store i64 %0, ptr %4, align 8, !tbaa !20
  store ptr %1, ptr %5, align 8, !tbaa !7
  store ptr %2, ptr %6, align 8, !tbaa !33
  call void @llvm.lifetime.start.p0(i64 8, ptr %7) #22
  store ptr null, ptr %7, align 8, !tbaa !11
  %8 = load i64, ptr %4, align 8, !tbaa !20
  %9 = call ptr @rb_check_typeddata(i64 noundef %8, ptr noundef @rb_io_buffer_type)
  store ptr %9, ptr %7, align 8, !tbaa !11
  %10 = load ptr, ptr %7, align 8, !tbaa !11
  %11 = load ptr, ptr %5, align 8, !tbaa !7
  %12 = load ptr, ptr %6, align 8, !tbaa !33
  call void @io_buffer_get_bytes_for_writing(ptr noundef %10, ptr noundef %11, ptr noundef %12)
  call void @llvm.lifetime.end.p0(i64 8, ptr %7) #22
  ret void
}