; Function Attrs: nounwind sspstrong uwtable
define dso_local void @rb_io_buffer_get_bytes_for_writing(i64 noundef %0, ptr noundef writeonly captures(none) %1, ptr noundef writeonly captures(none) %2) local_unnamed_addr #0 {
  %4 = tail call ptr @rb_check_typeddata(i64 noundef %0, ptr noundef nonnull @rb_io_buffer_type) #25
  %5 = getelementptr inbounds nuw i8, ptr %4, i64 16
  %6 = load i32, ptr %5, align 8, !tbaa !15
  %7 = and i32 %6, 128
  %.not.i = icmp eq i32 %7, 0
  br i1 %.not.i, label %8, label %RB_OBJ_FROZEN.exit.thread.i

8:                                                ; preds = %3
  %9 = getelementptr inbounds nuw i8, ptr %4, i64 24
  %10 = load i64, ptr %9, align 8, !tbaa !7
  %11 = icmp eq i64 %10, 4
  br i1 %11, label %io_buffer_validate.exit.thread.i, label %12

12:                                               ; preds = %8
  %13 = icmp eq i64 %10, 0
  %14 = and i64 %10, 7
  %15 = icmp ne i64 %14, 0
  %16 = or i1 %13, %15
  br i1 %16, label %RB_OBJ_FROZEN.exit.thread.i, label %RB_FL_ABLE.exit.i.i

RB_FL_ABLE.exit.i.i:                              ; preds = %12
  %17 = inttoptr i64 %10 to ptr
  %18 = load i64, ptr %17, align 8, !tbaa !28
  %19 = and i64 %18, 31
  %.not.i.i = icmp eq i64 %19, 27
  %20 = and i64 %18, 2048
  %21 = icmp ne i64 %20, 0
  %or.cond.i = or i1 %.not.i.i, %21
  br i1 %or.cond.i, label %RB_OBJ_FROZEN.exit.thread.i, label %io_buffer_validate.exit.i

RB_OBJ_FROZEN.exit.thread.i:                      ; preds = %RB_FL_ABLE.exit.i.i, %12, %3
  %22 = load i64, ptr @rb_eIOBufferAccessError, align 8, !tbaa !22
  tail call void (i64, ptr, ...) @rb_raise(i64 noundef %22, ptr noundef nonnull @.str.117) #26
  unreachable

io_buffer_validate.exit.i:                        ; preds = %RB_FL_ABLE.exit.i.i
  %23 = load ptr, ptr %4, align 8, !tbaa !14
  %24 = getelementptr inbounds nuw i8, ptr %4, i64 8
  %25 = load i64, ptr %24, align 8, !tbaa !16
  %26 = tail call fastcc i32 @io_buffer_validate_slice(i64 noundef %10, ptr noundef %23, i64 noundef %25)
  %.not11.i = icmp eq i32 %26, 0
  br i1 %.not11.i, label %27, label %io_buffer_validate.exit.thread.i

27:                                               ; preds = %io_buffer_validate.exit.i
  %28 = load i64, ptr @rb_eIOBufferInvalidatedError, align 8, !tbaa !22
  tail call void (i64, ptr, ...) @rb_raise(i64 noundef %28, ptr noundef nonnull @.str.118) #26
  unreachable

io_buffer_validate.exit.thread.i:                 ; preds = %io_buffer_validate.exit.i, %8
  %29 = load ptr, ptr %4, align 8, !tbaa !14
  %.not12.i = icmp eq ptr %29, null
  br i1 %.not12.i, label %io_buffer_get_bytes_for_writing.exit, label %30

30:                                               ; preds = %io_buffer_validate.exit.thread.i
  %31 = getelementptr inbounds nuw i8, ptr %4, i64 8
  %32 = load i64, ptr %31, align 8, !tbaa !16
  br label %io_buffer_get_bytes_for_writing.exit

io_buffer_get_bytes_for_writing.exit:             ; preds = %io_buffer_validate.exit.thread.i, %30
  %storemerge.i = phi i64 [ %32, %30 ], [ 0, %io_buffer_validate.exit.thread.i ]
  store ptr %29, ptr %1, align 8, !tbaa !35
  store i64 %storemerge.i, ptr %2, align 8, !tbaa !22
  ret void
}